target datalayout = "e-m:e-p270:32:32-p271:32:32-p272:64:64-i64:64-i128:128-f80:128-n8:16:32:64-S128"
target triple = "x86_64-pc-linux-gnu"

%struct.__va_list_tag = type { i32, i32, ptr, ptr }
%struct.CReuseWhere = type { i32 }

@ett_mswsp_msg_creusewhere = internal global i32 0, align 4
@.str.1321 = private unnamed_addr constant [8 x i8] c" Id: %u\00", align 1

; Function Attrs: null_pointer_is_valid sspstrong uwtable
define internal i32 @parse_CReuseWhere(ptr noundef %0, i32 noundef %1, ptr noundef %2, ptr noundef %3, ptr noundef %4, ptr noundef %5, ...) #0 {
  %7 = alloca ptr, align 8
  %8 = alloca i32, align 4
  %9 = alloca ptr, align 8
  %10 = alloca ptr, align 8
  %11 = alloca ptr, align 8
  %12 = alloca ptr, align 8
  %13 = alloca ptr, align 8
  %14 = alloca [1 x %struct.__va_list_tag], align 16
  %15 = alloca ptr, align 8
  store ptr %0, ptr %7, align 8
  store i32 %1, ptr %8, align 4
  store ptr %2, ptr %9, align 8
  store ptr %3, ptr %10, align 8
  store ptr %4, ptr %11, align 8
  store ptr %5, ptr %12, align 8
  call void @llvm.lifetime.start.p0(i64 8, ptr %13) #11
  call void @llvm.lifetime.start.p0(i64 24, ptr %14) #11
  call void @llvm.lifetime.start.p0(i64 8, ptr %15) #11
  %16 = getelementptr inbounds [1 x %struct.__va_list_tag], ptr %14, i64 0, i64 0
  call void @llvm.va_start.p0(ptr %16)
  %17 = call ptr @wmem_packet_scope()
  %18 = load ptr, ptr %12, align 8
  %19 = getelementptr inbounds [1 x %struct.__va_list_tag], ptr %14, i64 0, i64 0
  %20 = call noalias ptr @wmem_strdup_vprintf(ptr noundef %17, ptr noundef %18, ptr noundef %19)
  store ptr %20, ptr %15, align 8
  %21 = getelementptr inbounds [1 x %struct.__va_list_tag], ptr %14, i64 0, i64 0
  call void @llvm.va_end.p0(ptr %21)
  %22 = load ptr, ptr %9, align 8
  %23 = load ptr, ptr %7, align 8
  %24 = load i32, ptr %8, align 4
  %25 = load i32, ptr @ett_mswsp_msg_creusewhere, align 4
  %26 = load ptr, ptr %15, align 8
  %27 = call ptr @proto_tree_add_subtree(ptr noundef %22, ptr noundef %23, i32 noundef %24, i32 noundef 0, i32 noundef %25, ptr noundef %13, ptr noundef %26)
  %28 = load ptr, ptr %7, align 8
  %29 = load i32, ptr %8, align 4
  %30 = call i32 @tvb_get_letohl(ptr noundef %28, i32 noundef %29)
  %31 = load ptr, ptr %11, align 8
  %32 = getelementptr inbounds nuw %struct.CReuseWhere, ptr %31, i32 0, i32 0
  store i32 %30, ptr %32, align 4
  %33 = load i32, ptr %8, align 4
  %34 = add i32 %33, 4
  store i32 %34, ptr %8, align 4
  %35 = load ptr, ptr %13, align 8
  %36 = load ptr, ptr %11, align 8
  %37 = getelementptr inbounds nuw %struct.CReuseWhere, ptr %36, i32 0, i32 0
  %38 = load i32, ptr %37, align 4
  call void (ptr, ptr, ...) @proto_item_append_text(ptr noundef %35, ptr noundef @.str.1321, i32 noundef %38)
  %39 = load ptr, ptr %13, align 8
  %40 = load ptr, ptr %7, align 8
  %41 = load i32, ptr %8, align 4
  call void @proto_item_set_end(ptr noundef %39, ptr noundef %40, i32 noundef %41)
  %42 = load i32, ptr %8, align 4
  call void @llvm.lifetime.end.p0(i64 8, ptr %15) #11
  call void @llvm.lifetime.end.p0(i64 24, ptr %14) #11
  call void @llvm.lifetime.end.p0(i64 8, ptr %13) #11
  ret i32 %42
}