; Function Attrs: null_pointer_is_valid sspstrong uwtable
define internal noundef i32 @parse_CReuseWhere(ptr noundef %0, i32 noundef %1, ptr noundef %2, ptr readnone captures(none) %3, ptr noundef writeonly captures(none) initializes((0, 4)) %4, ptr readnone captures(none) %5, ...) unnamed_addr #0 {
  %7 = alloca ptr, align 8
  %8 = alloca [1 x %struct.__va_list_tag], align 16
  call void @llvm.lifetime.start.p0(i64 8, ptr nonnull %7) #11
  call void @llvm.lifetime.start.p0(i64 24, ptr nonnull %8) #11
  call void @llvm.va_start.p0(ptr nonnull %8)
  %9 = call ptr @wmem_packet_scope()
  %10 = call noalias ptr @wmem_strdup_vprintf(ptr noundef %9, ptr noundef nonnull @.str.1261, ptr noundef nonnull %8)
  call void @llvm.va_end.p0(ptr nonnull %8)
  %11 = load i32, ptr @ett_mswsp_msg_creusewhere, align 4
  %12 = call ptr @proto_tree_add_subtree(ptr noundef %2, ptr noundef %0, i32 noundef %1, i32 noundef 0, i32 noundef %11, ptr noundef nonnull %7, ptr noundef %10)
  %13 = call i32 @tvb_get_letohl(ptr noundef %0, i32 noundef %1)
  store i32 %13, ptr %4, align 4
  %14 = add i32 %1, 4
  %15 = load ptr, ptr %7, align 8
  call void (ptr, ptr, ...) @proto_item_append_text(ptr noundef %15, ptr noundef nonnull @.str.1321, i32 noundef %13)
  %16 = load ptr, ptr %7, align 8
  call void @proto_item_set_end(ptr noundef %16, ptr noundef %0, i32 noundef %14)
  call void @llvm.lifetime.end.p0(i64 24, ptr nonnull %8) #11
  call void @llvm.lifetime.end.p0(i64 8, ptr nonnull %7) #11
  ret i32 %14
}